; ModuleID = '64/2351.c'
source_filename = "64/2351.c"
target datalayout = "e-m:e-p270:32:32-p271:32:32-p272:64:64-i64:64-f80:128-n8:16:32:64-S128"
target triple = "x86_64-pc-linux-gnu"

@.str = private unnamed_addr constant [4 x i8] c"%d\0A\00", align 1
@.str.1 = private unnamed_addr constant [10 x i8] c"%d %d %d \00", align 1
@.str.2 = private unnamed_addr constant [29 x i8] c"(%d,%d,%d)-(%d,%d,%d)=%.2lf\0A\00", align 1

; Function Attrs: noinline nounwind uwtable
define dso_local i32 @main() #0 {
  %1 = alloca i32, align 4
  %2 = alloca i32, align 4
  %3 = alloca i32, align 4
  %4 = alloca i32, align 4
  %5 = alloca i32, align 4
  %6 = alloca i32, align 4
  %7 = alloca i32, align 4
  %8 = alloca i8*, align 8
  %9 = alloca i64, align 8
  %10 = alloca i64, align 8
  %11 = alloca i64, align 8
  %12 = alloca double, align 8
  %13 = alloca double, align 8
  %14 = alloca i64, align 8
  %15 = alloca double, align 8
  %16 = alloca i64, align 8
  %17 = alloca i64, align 8
  store i32 0, i32* %1, align 4
  %18 = call i32 (i8*, ...) @__isoc99_scanf(i8* getelementptr inbounds ([4 x i8], [4 x i8]* @.str, i64 0, i64 0), i32* %2)
  %19 = load i32, i32* %2, align 4
  %20 = zext i32 %19 to i64
  %21 = call i8* @llvm.stacksave()
  store i8* %21, i8** %8, align 8
  %22 = alloca i32, i64 %20, align 16
  store i64 %20, i64* %9, align 8
  %23 = load i32, i32* %2, align 4
  %24 = zext i32 %23 to i64
  %25 = alloca i32, i64 %24, align 16
  store i64 %24, i64* %10, align 8
  %26 = load i32, i32* %2, align 4
  %27 = zext i32 %26 to i64
  %28 = alloca i32, i64 %27, align 16
  store i64 %27, i64* %11, align 8
  store i32 0, i32* %3, align 4
  br label %29

29:                                               ; preds = %44, %0
  %30 = load i32, i32* %3, align 4
  %31 = load i32, i32* %2, align 4
  %32 = icmp slt i32 %30, %31
  br i1 %32, label %33, label %47

33:                                               ; preds = %29
  %34 = load i32, i32* %3, align 4
  %35 = sext i32 %34 to i64
  %36 = getelementptr inbounds i32, i32* %22, i64 %35
  %37 = load i32, i32* %3, align 4
  %38 = sext i32 %37 to i64
  %39 = getelementptr inbounds i32, i32* %25, i64 %38
  %40 = load i32, i32* %3, align 4
  %41 = sext i32 %40 to i64
  %42 = getelementptr inbounds i32, i32* %28, i64 %41
  %43 = call i32 (i8*, ...) @__isoc99_scanf(i8* getelementptr inbounds ([10 x i8], [10 x i8]* @.str.1, i64 0, i64 0), i32* %36, i32* %39, i32* %42)
  br label %44

44:                                               ; preds = %33
  %45 = load i32, i32* %3, align 4
  %46 = add nsw i32 %45, 1
  store i32 %46, i32* %3, align 4
  br label %29

47:                                               ; preds = %29
  %48 = load i32, i32* %2, align 4
  %49 = load i32, i32* %2, align 4
  %50 = sub nsw i32 %49, 1
  %51 = mul nsw i32 %48, %50
  %52 = sdiv i32 %51, 2
  %53 = zext i32 %52 to i64
  %54 = alloca double, i64 %53, align 16
  store i64 %53, i64* %14, align 8
  %55 = load i32, i32* %2, align 4
  %56 = load i32, i32* %2, align 4
  %57 = sub nsw i32 %56, 1
  %58 = mul nsw i32 %55, %57
  %59 = sdiv i32 %58, 2
  %60 = zext i32 %59 to i64
  %61 = alloca i32, i64 %60, align 16
  store i64 %60, i64* %16, align 8
  %62 = load i32, i32* %2, align 4
  %63 = load i32, i32* %2, align 4
  %64 = sub nsw i32 %63, 1
  %65 = mul nsw i32 %62, %64
  %66 = sdiv i32 %65, 2
  %67 = zext i32 %66 to i64
  %68 = alloca i32, i64 %67, align 16
  store i64 %67, i64* %17, align 8
  store i32 0, i32* %5, align 4
  store i32 0, i32* %3, align 4
  br label %69

69:                                               ; preds = %160, %47
  %70 = load i32, i32* %3, align 4
  %71 = load i32, i32* %2, align 4
  %72 = icmp slt i32 %70, %71
  br i1 %72, label %73, label %163

73:                                               ; preds = %69
  %74 = load i32, i32* %3, align 4
  %75 = add nsw i32 %74, 1
  store i32 %75, i32* %4, align 4
  br label %76

76:                                               ; preds = %156, %73
  %77 = load i32, i32* %4, align 4
  %78 = load i32, i32* %2, align 4
  %79 = icmp slt i32 %77, %78
  br i1 %79, label %80, label %159

80:                                               ; preds = %76
  %81 = load i32, i32* %3, align 4
  %82 = sext i32 %81 to i64
  %83 = getelementptr inbounds i32, i32* %22, i64 %82
  %84 = load i32, i32* %83, align 4
  %85 = load i32, i32* %4, align 4
  %86 = sext i32 %85 to i64
  %87 = getelementptr inbounds i32, i32* %22, i64 %86
  %88 = load i32, i32* %87, align 4
  %89 = sub nsw i32 %84, %88
  %90 = load i32, i32* %3, align 4
  %91 = sext i32 %90 to i64
  %92 = getelementptr inbounds i32, i32* %22, i64 %91
  %93 = load i32, i32* %92, align 4
  %94 = load i32, i32* %4, align 4
  %95 = sext i32 %94 to i64
  %96 = getelementptr inbounds i32, i32* %22, i64 %95
  %97 = load i32, i32* %96, align 4
  %98 = sub nsw i32 %93, %97
  %99 = mul nsw i32 %89, %98
  %100 = load i32, i32* %3, align 4
  %101 = sext i32 %100 to i64
  %102 = getelementptr inbounds i32, i32* %25, i64 %101
  %103 = load i32, i32* %102, align 4
  %104 = load i32, i32* %4, align 4
  %105 = sext i32 %104 to i64
  %106 = getelementptr inbounds i32, i32* %25, i64 %105
  %107 = load i32, i32* %106, align 4
  %108 = sub nsw i32 %103, %107
  %109 = load i32, i32* %3, align 4
  %110 = sext i32 %109 to i64
  %111 = getelementptr inbounds i32, i32* %25, i64 %110
  %112 = load i32, i32* %111, align 4
  %113 = load i32, i32* %4, align 4
  %114 = sext i32 %113 to i64
  %115 = getelementptr inbounds i32, i32* %25, i64 %114
  %116 = load i32, i32* %115, align 4
  %117 = sub nsw i32 %112, %116
  %118 = mul nsw i32 %108, %117
  %119 = add nsw i32 %99, %118
  %120 = load i32, i32* %3, align 4
  %121 = sext i32 %120 to i64
  %122 = getelementptr inbounds i32, i32* %28, i64 %121
  %123 = load i32, i32* %122, align 4
  %124 = load i32, i32* %4, align 4
  %125 = sext i32 %124 to i64
  %126 = getelementptr inbounds i32, i32* %28, i64 %125
  %127 = load i32, i32* %126, align 4
  %128 = sub nsw i32 %123, %127
  %129 = load i32, i32* %3, align 4
  %130 = sext i32 %129 to i64
  %131 = getelementptr inbounds i32, i32* %28, i64 %130
  %132 = load i32, i32* %131, align 4
  %133 = load i32, i32* %4, align 4
  %134 = sext i32 %133 to i64
  %135 = getelementptr inbounds i32, i32* %28, i64 %134
  %136 = load i32, i32* %135, align 4
  %137 = sub nsw i32 %132, %136
  %138 = mul nsw i32 %128, %137
  %139 = add nsw i32 %119, %138
  %140 = sitofp i32 %139 to double
  %141 = call double @sqrt(double %140) #2
  store double %141, double* %12, align 8
  %142 = load double, double* %12, align 8
  %143 = load i32, i32* %5, align 4
  %144 = sext i32 %143 to i64
  %145 = getelementptr inbounds double, double* %54, i64 %144
  store double %142, double* %145, align 8
  %146 = load i32, i32* %3, align 4
  %147 = load i32, i32* %5, align 4
  %148 = sext i32 %147 to i64
  %149 = getelementptr inbounds i32, i32* %61, i64 %148
  store i32 %146, i32* %149, align 4
  %150 = load i32, i32* %4, align 4
  %151 = load i32, i32* %5, align 4
  %152 = sext i32 %151 to i64
  %153 = getelementptr inbounds i32, i32* %68, i64 %152
  store i32 %150, i32* %153, align 4
  %154 = load i32, i32* %5, align 4
  %155 = add nsw i32 %154, 1
  store i32 %155, i32* %5, align 4
  br label %156

156:                                              ; preds = %80
  %157 = load i32, i32* %4, align 4
  %158 = add nsw i32 %157, 1
  store i32 %158, i32* %4, align 4
  br label %76

159:                                              ; preds = %76
  br label %160

160:                                              ; preds = %159
  %161 = load i32, i32* %3, align 4
  %162 = add nsw i32 %161, 1
  store i32 %162, i32* %3, align 4
  br label %69

163:                                              ; preds = %69
  %164 = load i32, i32* %2, align 4
  %165 = load i32, i32* %2, align 4
  %166 = sub nsw i32 %165, 1
  %167 = mul nsw i32 %164, %166
  %168 = sdiv i32 %167, 2
  %169 = sitofp i32 %168 to double
  store double %169, double* %13, align 8
  store i32 1, i32* %3, align 4
  br label %170

170:                                              ; preds = %252, %163
  %171 = load i32, i32* %3, align 4
  %172 = sitofp i32 %171 to double
  %173 = load double, double* %13, align 8
  %174 = fcmp olt double %172, %173
  br i1 %174, label %175, label %255

175:                                              ; preds = %170
  store i32 0, i32* %5, align 4
  br label %176

176:                                              ; preds = %248, %175
  %177 = load i32, i32* %5, align 4
  %178 = sitofp i32 %177 to double
  %179 = load double, double* %13, align 8
  %180 = load i32, i32* %3, align 4
  %181 = sitofp i32 %180 to double
  %182 = fsub double %179, %181
  %183 = fcmp olt double %178, %182
  br i1 %183, label %184, label %251

184:                                              ; preds = %176
  %185 = load i32, i32* %5, align 4
  %186 = sext i32 %185 to i64
  %187 = getelementptr inbounds double, double* %54, i64 %186
  %188 = load double, double* %187, align 8
  %189 = load i32, i32* %5, align 4
  %190 = add nsw i32 %189, 1
  %191 = sext i32 %190 to i64
  %192 = getelementptr inbounds double, double* %54, i64 %191
  %193 = load double, double* %192, align 8
  %194 = fcmp olt double %188, %193
  br i1 %194, label %195, label %247

195:                                              ; preds = %184
  %196 = load i32, i32* %5, align 4
  %197 = sext i32 %196 to i64
  %198 = getelementptr inbounds double, double* %54, i64 %197
  %199 = load double, double* %198, align 8
  store double %199, double* %15, align 8
  %200 = load i32, i32* %5, align 4
  %201 = add nsw i32 %200, 1
  %202 = sext i32 %201 to i64
  %203 = getelementptr inbounds double, double* %54, i64 %202
  %204 = load double, double* %203, align 8
  %205 = load i32, i32* %5, align 4
  %206 = sext i32 %205 to i64
  %207 = getelementptr inbounds double, double* %54, i64 %206
  store double %204, double* %207, align 8
  %208 = load double, double* %15, align 8
  %209 = load i32, i32* %5, align 4
  %210 = add nsw i32 %209, 1
  %211 = sext i32 %210 to i64
  %212 = getelementptr inbounds double, double* %54, i64 %211
  store double %208, double* %212, align 8
  %213 = load i32, i32* %5, align 4
  %214 = sext i32 %213 to i64
  %215 = getelementptr inbounds i32, i32* %61, i64 %214
  %216 = load i32, i32* %215, align 4
  store i32 %216, i32* %6, align 4
  %217 = load i32, i32* %5, align 4
  %218 = add nsw i32 %217, 1
  %219 = sext i32 %218 to i64
  %220 = getelementptr inbounds i32, i32* %61, i64 %219
  %221 = load i32, i32* %220, align 4
  %222 = load i32, i32* %5, align 4
  %223 = sext i32 %222 to i64
  %224 = getelementptr inbounds i32, i32* %61, i64 %223
  store i32 %221, i32* %224, align 4
  %225 = load i32, i32* %6, align 4
  %226 = load i32, i32* %5, align 4
  %227 = add nsw i32 %226, 1
  %228 = sext i32 %227 to i64
  %229 = getelementptr inbounds i32, i32* %61, i64 %228
  store i32 %225, i32* %229, align 4
  %230 = load i32, i32* %5, align 4
  %231 = sext i32 %230 to i64
  %232 = getelementptr inbounds i32, i32* %68, i64 %231
  %233 = load i32, i32* %232, align 4
  store i32 %233, i32* %7, align 4
  %234 = load i32, i32* %5, align 4
  %235 = add nsw i32 %234, 1
  %236 = sext i32 %235 to i64
  %237 = getelementptr inbounds i32, i32* %68, i64 %236
  %238 = load i32, i32* %237, align 4
  %239 = load i32, i32* %5, align 4
  %240 = sext i32 %239 to i64
  %241 = getelementptr inbounds i32, i32* %68, i64 %240
  store i32 %238, i32* %241, align 4
  %242 = load i32, i32* %7, align 4
  %243 = load i32, i32* %5, align 4
  %244 = add nsw i32 %243, 1
  %245 = sext i32 %244 to i64
  %246 = getelementptr inbounds i32, i32* %68, i64 %245
  store i32 %242, i32* %246, align 4
  br label %247

247:                                              ; preds = %195, %184
  br label %248

248:                                              ; preds = %247
  %249 = load i32, i32* %5, align 4
  %250 = add nsw i32 %249, 1
  store i32 %250, i32* %5, align 4
  br label %176

251:                                              ; preds = %176
  br label %252

252:                                              ; preds = %251
  %253 = load i32, i32* %3, align 4
  %254 = add nsw i32 %253, 1
  store i32 %254, i32* %3, align 4
  br label %170

255:                                              ; preds = %170
  store i32 0, i32* %5, align 4
  br label %256

256:                                              ; preds = %309, %255
  %257 = load i32, i32* %5, align 4
  %258 = sitofp i32 %257 to double
  %259 = load double, double* %13, align 8
  %260 = fcmp olt double %258, %259
  br i1 %260, label %261, label %312

261:                                              ; preds = %256
  %262 = load i32, i32* %5, align 4
  %263 = sext i32 %262 to i64
  %264 = getelementptr inbounds i32, i32* %61, i64 %263
  %265 = load i32, i32* %264, align 4
  %266 = sext i32 %265 to i64
  %267 = getelementptr inbounds i32, i32* %22, i64 %266
  %268 = load i32, i32* %267, align 4
  %269 = load i32, i32* %5, align 4
  %270 = sext i32 %269 to i64
  %271 = getelementptr inbounds i32, i32* %61, i64 %270
  %272 = load i32, i32* %271, align 4
  %273 = sext i32 %272 to i64
  %274 = getelementptr inbounds i32, i32* %25, i64 %273
  %275 = load i32, i32* %274, align 4
  %276 = load i32, i32* %5, align 4
  %277 = sext i32 %276 to i64
  %278 = getelementptr inbounds i32, i32* %61, i64 %277
  %279 = load i32, i32* %278, align 4
  %280 = sext i32 %279 to i64
  %281 = getelementptr inbounds i32, i32* %28, i64 %280
  %282 = load i32, i32* %281, align 4
  %283 = load i32, i32* %5, align 4
  %284 = sext i32 %283 to i64
  %285 = getelementptr inbounds i32, i32* %68, i64 %284
  %286 = load i32, i32* %285, align 4
  %287 = sext i32 %286 to i64
  %288 = getelementptr inbounds i32, i32* %22, i64 %287
  %289 = load i32, i32* %288, align 4
  %290 = load i32, i32* %5, align 4
  %291 = sext i32 %290 to i64
  %292 = getelementptr inbounds i32, i32* %68, i64 %291
  %293 = load i32, i32* %292, align 4
  %294 = sext i32 %293 to i64
  %295 = getelementptr inbounds i32, i32* %25, i64 %294
  %296 = load i32, i32* %295, align 4
  %297 = load i32, i32* %5, align 4
  %298 = sext i32 %297 to i64
  %299 = getelementptr inbounds i32, i32* %68, i64 %298
  %300 = load i32, i32* %299, align 4
  %301 = sext i32 %300 to i64
  %302 = getelementptr inbounds i32, i32* %28, i64 %301
  %303 = load i32, i32* %302, align 4
  %304 = load i32, i32* %5, align 4
  %305 = sext i32 %304 to i64
  %306 = getelementptr inbounds double, double* %54, i64 %305
  %307 = load double, double* %306, align 8
  %308 = call i32 (i8*, ...) @printf(i8* getelementptr inbounds ([29 x i8], [29 x i8]* @.str.2, i64 0, i64 0), i32 %268, i32 %275, i32 %282, i32 %289, i32 %296, i32 %303, double %307)
  br label %309

309:                                              ; preds = %261
  %310 = load i32, i32* %5, align 4
  %311 = add nsw i32 %310, 1
  store i32 %311, i32* %5, align 4
  br label %256

312:                                              ; preds = %256
  store i32 0, i32* %1, align 4
  %313 = load i8*, i8** %8, align 8
  call void @llvm.stackrestore(i8* %313)
  %314 = load i32, i32* %1, align 4
  ret i32 %314
}

declare dso_local i32 @__isoc99_scanf(i8*, ...) #1

; Function Attrs: nounwind
declare i8* @llvm.stacksave() #2

; Function Attrs: nounwind
declare dso_local double @sqrt(double) #3

declare dso_local i32 @printf(i8*, ...) #1

; Function Attrs: nounwind
declare void @llvm.stackrestore(i8*) #2


!llvm.module.flags = !{!0}
!llvm.ident = !{!1}

!0 = !{i32 1, !"wchar_size", i32 4}
!1 = !{!"clang version 10.0.0-4ubuntu1 "}
